target datalayout = "e-m:e-p270:32:32-p271:32:32-p272:64:64-i64:64-i128:128-f80:128-n8:16:32:64-S128"
target triple = "x86_64-pc-linux-gnu"

%"class.std::__shared_count" = type { ptr }
%struct.__va_list_tag = type { i32, i32, ptr, ptr }
%"class.std::__shared_ptr.59" = type { ptr, %"class.std::__shared_count" }

; Function Attrs: mustprogress uwtable
define internal void @_ZN7rocksdbL5InfovEPNS_6LoggerEPKcP13__va_list_tag(ptr noundef %0, ptr noundef %1, ptr noundef %2) #5 {
  %4 = alloca ptr, align 8
  %5 = alloca ptr, align 8
  %6 = alloca ptr, align 8
  store ptr %0, ptr %4, align 8, !tbaa !182
  store ptr %1, ptr %5, align 8, !tbaa !31
  store ptr %2, ptr %6, align 8, !tbaa !189
  %7 = load ptr, ptr %4, align 8, !tbaa !182
  %8 = icmp ne ptr %7, null
  br i1 %8, label %9, label %24

9:                                                ; preds = %3
  %10 = load ptr, ptr %4, align 8, !tbaa !182
  %11 = load ptr, ptr %10, align 8, !tbaa !52
  %12 = getelementptr inbounds ptr, ptr %11, i64 8
  %13 = load ptr, ptr %12, align 8
  %14 = call noundef zeroext i8 %13(ptr noundef nonnull align 8 dereferenceable(10) %10)
  %15 = zext i8 %14 to i32
  %16 = icmp sle i32 %15, 1
  br i1 %16, label %17, label %24

17:                                               ; preds = %9
  %18 = load ptr, ptr %4, align 8, !tbaa !182
  %19 = load ptr, ptr %5, align 8, !tbaa !31
  %20 = load ptr, ptr %6, align 8, !tbaa !189
  %21 = load ptr, ptr %18, align 8, !tbaa !52
  %22 = getelementptr inbounds ptr, ptr %21, i64 5
  %23 = load ptr, ptr %22, align 8
  call void %23(ptr noundef nonnull align 8 dereferenceable(10) %18, i8 noundef zeroext 1, ptr noundef %19, ptr noundef %20)
  br label %24

24:                                               ; preds = %17, %9, %3
  ret void
}

; Function Attrs: mustprogress nounwind uwtable
define linkonce_odr noundef ptr @_ZNKSt12__shared_ptrIN7rocksdb6LoggerELN9__gnu_cxx12_Lock_policyE2EE3getEv(ptr noundef nonnull align 8 dereferenceable(16) %0) #3 comdat align 2 {
  %2 = alloca ptr, align 8
  store ptr %0, ptr %2, align 8, !tbaa !193
  %3 = load ptr, ptr %2, align 8
  %4 = getelementptr inbounds nuw %"class.std::__shared_ptr.59", ptr %3, i32 0, i32 0
  %5 = load ptr, ptr %4, align 8, !tbaa !195
  ret ptr %5
}

; Function Attrs: mustprogress uwtable
define void @_ZN7rocksdb4InfoERKSt10shared_ptrINS_6LoggerEEPKcz(ptr noundef nonnull align 8 dereferenceable(16) %0, ptr noundef %1, ...) #5 {
  %3 = alloca ptr, align 8
  %4 = alloca ptr, align 8
  %5 = alloca [1 x %struct.__va_list_tag], align 16
  store ptr %0, ptr %3, align 8, !tbaa !91
  store ptr %1, ptr %4, align 8, !tbaa !31
  call void @llvm.lifetime.start.p0(i64 24, ptr %5) #4
  %6 = getelementptr inbounds [1 x %struct.__va_list_tag], ptr %5, i64 0, i64 0
  call void @llvm.va_start.p0(ptr %6)
  %7 = load ptr, ptr %3, align 8, !tbaa !91
  %8 = call noundef ptr @_ZNKSt12__shared_ptrIN7rocksdb6LoggerELN9__gnu_cxx12_Lock_policyE2EE3getEv(ptr noundef nonnull align 8 dereferenceable(16) %7) #4
  %9 = load ptr, ptr %4, align 8, !tbaa !31
  %10 = getelementptr inbounds [1 x %struct.__va_list_tag], ptr %5, i64 0, i64 0
  call void @_ZN7rocksdbL5InfovEPNS_6LoggerEPKcP13__va_list_tag(ptr noundef %8, ptr noundef %9, ptr noundef %10)
  %11 = getelementptr inbounds [1 x %struct.__va_list_tag], ptr %5, i64 0, i64 0
  call void @llvm.va_end.p0(ptr %11)
  call void @llvm.lifetime.end.p0(i64 24, ptr %5) #4
  ret void
}